target datalayout = "e-m:e-p270:32:32-p271:32:32-p272:64:64-i64:64-i128:128-f80:128-n8:16:32:64-S128"
target triple = "x86_64-pc-linux-gnu"

%struct.Gia_Obj_t_ = type <{ i64, i32 }>
%struct.Vec_Int_t_ = type { i32, i32, ptr }
%struct.Gia_Man_t_ = type { ptr, ptr, i32, i32, i32, i32, ptr, ptr, i32, i32, i32, ptr, ptr, %struct.Vec_Int_t_, %struct.Vec_Int_t_, i32, i32, i32, %struct.Vec_Int_t_, ptr, ptr, ptr, i32, i32, i32, i32, ptr, ptr, ptr, ptr, ptr, i32, i32, ptr, i32, ptr, ptr, ptr, ptr, ptr, ptr, ptr, ptr, ptr, ptr, ptr, ptr, ptr, ptr, ptr, ptr, ptr, ptr, %struct.Vec_Int_t_, %struct.Vec_Int_t_, ptr, ptr, ptr, ptr, ptr, ptr, ptr, ptr, ptr, ptr, ptr, ptr, ptr, ptr, ptr, ptr, ptr, ptr, ptr, ptr, ptr, i32, float, float, ptr, ptr, i32, ptr, ptr, ptr, ptr, ptr, ptr, ptr, ptr, ptr, ptr, ptr, ptr, ptr, ptr, ptr, i64, i64, ptr, ptr, i32, i32, i32, i32, i32, i32, i32, i32, i32, i32, i32, i32, ptr, ptr, ptr, ptr, ptr, ptr, ptr, ptr, i32, i32, i32, ptr, i32, i32, ptr, ptr, ptr, ptr, ptr, ptr, i32, i32, ptr, %struct.Vec_Int_t_, %struct.Vec_Int_t_, %struct.Vec_Int_t_, ptr, ptr, ptr, i32, i32, i32, i32, ptr, ptr, ptr, ptr, ptr }

; Function Attrs: inlinehint nounwind uwtable
define internal i32 @Abc_LitNotCond(i32 noundef %0, i32 noundef %1) #2 {
  %3 = alloca i32, align 4
  %4 = alloca i32, align 4
  store i32 %0, ptr %3, align 4, !tbaa !8
  store i32 %1, ptr %4, align 4, !tbaa !8
  %5 = load i32, ptr %3, align 4, !tbaa !8
  %6 = load i32, ptr %4, align 4, !tbaa !8
  %7 = icmp sgt i32 %6, 0
  %8 = zext i1 %7 to i32
  %9 = xor i32 %5, %8
  ret i32 %9
}

; Function Attrs: inlinehint nounwind uwtable
define internal i32 @Gia_ObjFaninC0(ptr noundef %0) #2 {
  %2 = alloca ptr, align 8
  store ptr %0, ptr %2, align 8, !tbaa !12
  %3 = load ptr, ptr %2, align 8, !tbaa !12
  %4 = load i64, ptr %3, align 4
  %5 = lshr i64 %4, 29
  %6 = and i64 %5, 1
  %7 = trunc i64 %6 to i32
  ret i32 %7
}

; Function Attrs: inlinehint nounwind uwtable
define internal ptr @Gia_ObjFanin0(ptr noundef %0) #2 {
  %2 = alloca ptr, align 8
  store ptr %0, ptr %2, align 8, !tbaa !12
  %3 = load ptr, ptr %2, align 8, !tbaa !12
  %4 = load ptr, ptr %2, align 8, !tbaa !12
  %5 = load i64, ptr %4, align 4
  %6 = and i64 %5, 536870911
  %7 = trunc i64 %6 to i32
  %8 = sext i32 %7 to i64
  %9 = sub i64 0, %8
  %10 = getelementptr inbounds %struct.Gia_Obj_t_, ptr %3, i64 %9
  ret ptr %10
}

; Function Attrs: inlinehint nounwind uwtable
define internal i32 @Gia_ObjFaninId0(ptr noundef %0, i32 noundef %1) #2 {
  %3 = alloca ptr, align 8
  %4 = alloca i32, align 4
  store ptr %0, ptr %3, align 8, !tbaa !12
  store i32 %1, ptr %4, align 4, !tbaa !8
  %5 = load i32, ptr %4, align 4, !tbaa !8
  %6 = load ptr, ptr %3, align 8, !tbaa !12
  %7 = load i64, ptr %6, align 4
  %8 = and i64 %7, 536870911
  %9 = trunc i64 %8 to i32
  %10 = sub nsw i32 %5, %9
  ret i32 %10
}

; Function Attrs: inlinehint nounwind uwtable
define internal i32 @Gia_ObjId(ptr noundef %0, ptr noundef %1) #2 {
  %3 = alloca ptr, align 8
  %4 = alloca ptr, align 8
  store ptr %0, ptr %3, align 8, !tbaa !3
  store ptr %1, ptr %4, align 8, !tbaa !12
  %5 = load ptr, ptr %4, align 8, !tbaa !12
  %6 = load ptr, ptr %3, align 8, !tbaa !3
  %7 = getelementptr inbounds nuw %struct.Gia_Man_t_, ptr %6, i32 0, i32 6
  %8 = load ptr, ptr %7, align 8, !tbaa !19
  %9 = ptrtoint ptr %5 to i64
  %10 = ptrtoint ptr %8 to i64
  %11 = sub i64 %9, %10
  %12 = sdiv exact i64 %11, 12
  %13 = trunc i64 %12 to i32
  ret i32 %13
}

; Function Attrs: inlinehint nounwind uwtable
define internal ptr @Gia_ManObj(ptr noundef %0, i32 noundef %1) #2 {
  %3 = alloca ptr, align 8
  %4 = alloca i32, align 4
  store ptr %0, ptr %3, align 8, !tbaa !3
  store i32 %1, ptr %4, align 4, !tbaa !8
  %5 = load ptr, ptr %3, align 8, !tbaa !3
  %6 = getelementptr inbounds nuw %struct.Gia_Man_t_, ptr %5, i32 0, i32 6
  %7 = load ptr, ptr %6, align 8, !tbaa !19
  %8 = load i32, ptr %4, align 4, !tbaa !8
  %9 = sext i32 %8 to i64
  %10 = getelementptr inbounds %struct.Gia_Obj_t_, ptr %7, i64 %9
  ret ptr %10
}

; Function Attrs: inlinehint nounwind uwtable
define internal i32 @Vec_IntEntry(ptr noundef %0, i32 noundef %1) #2 {
  %3 = alloca ptr, align 8
  %4 = alloca i32, align 4
  store ptr %0, ptr %3, align 8, !tbaa !10
  store i32 %1, ptr %4, align 4, !tbaa !8
  %5 = load ptr, ptr %3, align 8, !tbaa !10
  %6 = getelementptr inbounds nuw %struct.Vec_Int_t_, ptr %5, i32 0, i32 2
  %7 = load ptr, ptr %6, align 8, !tbaa !16
  %8 = load i32, ptr %4, align 4, !tbaa !8
  %9 = sext i32 %8 to i64
  %10 = getelementptr inbounds i32, ptr %7, i64 %9
  %11 = load i32, ptr %10, align 4, !tbaa !8
  ret i32 %11
}

; Function Attrs: inlinehint nounwind uwtable
define internal i32 @Gia_ManRegNum(ptr noundef %0) #2 {
  %2 = alloca ptr, align 8
  store ptr %0, ptr %2, align 8, !tbaa !3
  %3 = load ptr, ptr %2, align 8, !tbaa !3
  %4 = getelementptr inbounds nuw %struct.Gia_Man_t_, ptr %3, i32 0, i32 2
  %5 = load i32, ptr %4, align 8, !tbaa !51
  ret i32 %5
}

; Function Attrs: inlinehint nounwind uwtable
define internal i32 @Gia_ObjFanin0Copy(ptr noundef %0) #2 {
  %2 = alloca ptr, align 8
  store ptr %0, ptr %2, align 8, !tbaa !12
  %3 = load ptr, ptr %2, align 8, !tbaa !12
  %4 = call ptr @Gia_ObjFanin0(ptr noundef %3)
  %5 = getelementptr inbounds nuw %struct.Gia_Obj_t_, ptr %4, i32 0, i32 1
  %6 = load i32, ptr %5, align 4, !tbaa !14
  %7 = load ptr, ptr %2, align 8, !tbaa !12
  %8 = call i32 @Gia_ObjFaninC0(ptr noundef %7)
  %9 = call i32 @Abc_LitNotCond(i32 noundef %6, i32 noundef %8)
  ret i32 %9
}

; Function Attrs: inlinehint nounwind uwtable
define internal i32 @Gia_ObjFaninId0p(ptr noundef %0, ptr noundef %1) #2 {
  %3 = alloca ptr, align 8
  %4 = alloca ptr, align 8
  store ptr %0, ptr %3, align 8, !tbaa !3
  store ptr %1, ptr %4, align 8, !tbaa !12
  %5 = load ptr, ptr %4, align 8, !tbaa !12
  %6 = load ptr, ptr %3, align 8, !tbaa !3
  %7 = load ptr, ptr %4, align 8, !tbaa !12
  %8 = call i32 @Gia_ObjId(ptr noundef %6, ptr noundef %7)
  %9 = call i32 @Gia_ObjFaninId0(ptr noundef %5, i32 noundef %8)
  ret i32 %9
}

; Function Attrs: inlinehint nounwind uwtable
define internal ptr @Gia_ManCo(ptr noundef %0, i32 noundef %1) #2 {
  %3 = alloca ptr, align 8
  %4 = alloca i32, align 4
  store ptr %0, ptr %3, align 8, !tbaa !3
  store i32 %1, ptr %4, align 4, !tbaa !8
  %5 = load ptr, ptr %3, align 8, !tbaa !3
  %6 = load ptr, ptr %3, align 8, !tbaa !3
  %7 = getelementptr inbounds nuw %struct.Gia_Man_t_, ptr %6, i32 0, i32 12
  %8 = load ptr, ptr %7, align 8, !tbaa !45
  %9 = load i32, ptr %4, align 4, !tbaa !8
  %10 = call i32 @Vec_IntEntry(ptr noundef %8, i32 noundef %9)
  %11 = call ptr @Gia_ManObj(ptr noundef %5, i32 noundef %10)
  ret ptr %11
}

; Function Attrs: inlinehint nounwind uwtable
define internal ptr @Gia_ManCi(ptr noundef %0, i32 noundef %1) #2 {
  %3 = alloca ptr, align 8
  %4 = alloca i32, align 4
  store ptr %0, ptr %3, align 8, !tbaa !3
  store i32 %1, ptr %4, align 4, !tbaa !8
  %5 = load ptr, ptr %3, align 8, !tbaa !3
  %6 = load ptr, ptr %3, align 8, !tbaa !3
  %7 = getelementptr inbounds nuw %struct.Gia_Man_t_, ptr %6, i32 0, i32 11
  %8 = load ptr, ptr %7, align 8, !tbaa !42
  %9 = load i32, ptr %4, align 4, !tbaa !8
  %10 = call i32 @Vec_IntEntry(ptr noundef %8, i32 noundef %9)
  %11 = call ptr @Gia_ManObj(ptr noundef %5, i32 noundef %10)
  ret ptr %11
}

; Function Attrs: inlinehint nounwind uwtable
define internal i32 @Vec_IntSize(ptr noundef %0) #2 {
  %2 = alloca ptr, align 8
  store ptr %0, ptr %2, align 8, !tbaa !10
  %3 = load ptr, ptr %2, align 8, !tbaa !10
  %4 = getelementptr inbounds nuw %struct.Vec_Int_t_, ptr %3, i32 0, i32 1
  %5 = load i32, ptr %4, align 4, !tbaa !50
  ret i32 %5
}

; Function Attrs: inlinehint nounwind uwtable
define internal ptr @Gia_ManConst0(ptr noundef %0) #2 {
  %2 = alloca ptr, align 8
  store ptr %0, ptr %2, align 8, !tbaa !3
  %3 = load ptr, ptr %2, align 8, !tbaa !3
  %4 = getelementptr inbounds nuw %struct.Gia_Man_t_, ptr %3, i32 0, i32 6
  %5 = load ptr, ptr %4, align 8, !tbaa !19
  ret ptr %5
}

; Function Attrs: inlinehint nounwind uwtable
define internal ptr @Abc_UtilStrsav(ptr noundef %0) #2 {
  %2 = alloca ptr, align 8
  store ptr %0, ptr %2, align 8, !tbaa !49
  %3 = load ptr, ptr %2, align 8, !tbaa !49
  %4 = icmp ne ptr %3, null
  br i1 %4, label %5, label %13

5:                                                ; preds = %1
  %6 = load ptr, ptr %2, align 8, !tbaa !49
  %7 = call i64 @strlen(ptr noundef %6) #12
  %8 = add i64 %7, 1
  %9 = mul i64 1, %8
  %10 = call noalias ptr @malloc(i64 noundef %9) #13
  %11 = load ptr, ptr %2, align 8, !tbaa !49
  %12 = call ptr @strcpy(ptr noundef %10, ptr noundef %11) #11
  br label %14

13:                                               ; preds = %1
  br label %14

14:                                               ; preds = %13, %5
  %15 = phi ptr [ %12, %5 ], [ null, %13 ]
  ret ptr %15
}

; Function Attrs: inlinehint nounwind uwtable
define internal i32 @Gia_ManObjNum(ptr noundef %0) #2 {
  %2 = alloca ptr, align 8
  store ptr %0, ptr %2, align 8, !tbaa !3
  %3 = load ptr, ptr %2, align 8, !tbaa !3
  %4 = getelementptr inbounds nuw %struct.Gia_Man_t_, ptr %3, i32 0, i32 4
  %5 = load i32, ptr %4, align 8, !tbaa !48
  ret i32 %5
}

; Function Attrs: nounwind uwtable
define ptr @Acec_ManDerive(ptr noundef %0, ptr noundef %1) #0 {
  %3 = alloca ptr, align 8
  %4 = alloca ptr, align 8
  %5 = alloca ptr, align 8
  %6 = alloca ptr, align 8
  %7 = alloca i32, align 4
  store ptr %0, ptr %3, align 8, !tbaa !3
  store ptr %1, ptr %4, align 8, !tbaa !10
  call void @llvm.lifetime.start.p0(i64 8, ptr %5) #11
  call void @llvm.lifetime.start.p0(i64 8, ptr %6) #11
  call void @llvm.lifetime.start.p0(i64 4, ptr %7) #11
  %8 = load ptr, ptr %3, align 8, !tbaa !3
  call void @Gia_ManFillValue(ptr noundef %8)
  %9 = load ptr, ptr %3, align 8, !tbaa !3
  %10 = call i32 @Gia_ManObjNum(ptr noundef %9)
  %11 = call ptr @Gia_ManStart(i32 noundef %10)
  store ptr %11, ptr %5, align 8, !tbaa !3
  %12 = load ptr, ptr %3, align 8, !tbaa !3
  %13 = getelementptr inbounds nuw %struct.Gia_Man_t_, ptr %12, i32 0, i32 0
  %14 = load ptr, ptr %13, align 8, !tbaa !40
  %15 = call ptr @Abc_UtilStrsav(ptr noundef %14)
  %16 = load ptr, ptr %5, align 8, !tbaa !3
  %17 = getelementptr inbounds nuw %struct.Gia_Man_t_, ptr %16, i32 0, i32 0
  store ptr %15, ptr %17, align 8, !tbaa !40
  %18 = load ptr, ptr %3, align 8, !tbaa !3
  %19 = getelementptr inbounds nuw %struct.Gia_Man_t_, ptr %18, i32 0, i32 1
  %20 = load ptr, ptr %19, align 8, !tbaa !41
  %21 = call ptr @Abc_UtilStrsav(ptr noundef %20)
  %22 = load ptr, ptr %5, align 8, !tbaa !3
  %23 = getelementptr inbounds nuw %struct.Gia_Man_t_, ptr %22, i32 0, i32 1
  store ptr %21, ptr %23, align 8, !tbaa !41
  %24 = load ptr, ptr %3, align 8, !tbaa !3
  %25 = call ptr @Gia_ManConst0(ptr noundef %24)
  %26 = getelementptr inbounds nuw %struct.Gia_Obj_t_, ptr %25, i32 0, i32 1
  store i32 0, ptr %26, align 4, !tbaa !14
  %27 = load ptr, ptr %5, align 8, !tbaa !3
  call void @Gia_ManHashAlloc(ptr noundef %27)
  store i32 0, ptr %7, align 4, !tbaa !8
  br label %28

28:                                               ; preds = %47, %2
  %29 = load i32, ptr %7, align 4, !tbaa !8
  %30 = load ptr, ptr %3, align 8, !tbaa !3
  %31 = getelementptr inbounds nuw %struct.Gia_Man_t_, ptr %30, i32 0, i32 11
  %32 = load ptr, ptr %31, align 8, !tbaa !42
  %33 = call i32 @Vec_IntSize(ptr noundef %32)
  %34 = icmp slt i32 %29, %33
  br i1 %34, label %35, label %40

35:                                               ; preds = %28
  %36 = load ptr, ptr %3, align 8, !tbaa !3
  %37 = load i32, ptr %7, align 4, !tbaa !8
  %38 = call ptr @Gia_ManCi(ptr noundef %36, i32 noundef %37)
  store ptr %38, ptr %6, align 8, !tbaa !12
  %39 = icmp ne ptr %38, null
  br label %40

40:                                               ; preds = %35, %28
  %41 = phi i1 [ false, %28 ], [ %39, %35 ]
  br i1 %41, label %42, label %50

42:                                               ; preds = %40
  %43 = load ptr, ptr %5, align 8, !tbaa !3
  %44 = call i32 @Gia_ManAppendCi(ptr noundef %43)
  %45 = load ptr, ptr %6, align 8, !tbaa !12
  %46 = getelementptr inbounds nuw %struct.Gia_Obj_t_, ptr %45, i32 0, i32 1
  store i32 %44, ptr %46, align 4, !tbaa !14
  br label %47

47:                                               ; preds = %42
  %48 = load i32, ptr %7, align 4, !tbaa !8
  %49 = add nsw i32 %48, 1
  store i32 %49, ptr %7, align 4, !tbaa !8
  br label %28, !llvm.loop !43

50:                                               ; preds = %40
  store i32 0, ptr %7, align 4, !tbaa !8
  br label %51

51:                                               ; preds = %72, %50
  %52 = load i32, ptr %7, align 4, !tbaa !8
  %53 = load ptr, ptr %3, align 8, !tbaa !3
  %54 = getelementptr inbounds nuw %struct.Gia_Man_t_, ptr %53, i32 0, i32 12
  %55 = load ptr, ptr %54, align 8, !tbaa !45
  %56 = call i32 @Vec_IntSize(ptr noundef %55)
  %57 = icmp slt i32 %52, %56
  br i1 %57, label %58, label %63

58:                                               ; preds = %51
  %59 = load ptr, ptr %3, align 8, !tbaa !3
  %60 = load i32, ptr %7, align 4, !tbaa !8
  %61 = call ptr @Gia_ManCo(ptr noundef %59, i32 noundef %60)
  store ptr %61, ptr %6, align 8, !tbaa !12
  %62 = icmp ne ptr %61, null
  br label %63

63:                                               ; preds = %58, %51
  %64 = phi i1 [ false, %51 ], [ %62, %58 ]
  br i1 %64, label %65, label %75

65:                                               ; preds = %63
  %66 = load ptr, ptr %5, align 8, !tbaa !3
  %67 = load ptr, ptr %3, align 8, !tbaa !3
  %68 = load ptr, ptr %3, align 8, !tbaa !3
  %69 = load ptr, ptr %6, align 8, !tbaa !12
  %70 = call i32 @Gia_ObjFaninId0p(ptr noundef %68, ptr noundef %69)
  %71 = load ptr, ptr %4, align 8, !tbaa !10
  call void @Acec_ManDerive_rec(ptr noundef %66, ptr noundef %67, i32 noundef %70, ptr noundef %71)
  br label %72

72:                                               ; preds = %65
  %73 = load i32, ptr %7, align 4, !tbaa !8
  %74 = add nsw i32 %73, 1
  store i32 %74, ptr %7, align 4, !tbaa !8
  br label %51, !llvm.loop !46

75:                                               ; preds = %63
  store i32 0, ptr %7, align 4, !tbaa !8
  br label %76

76:                                               ; preds = %97, %75
  %77 = load i32, ptr %7, align 4, !tbaa !8
  %78 = load ptr, ptr %3, align 8, !tbaa !3
  %79 = getelementptr inbounds nuw %struct.Gia_Man_t_, ptr %78, i32 0, i32 12
  %80 = load ptr, ptr %79, align 8, !tbaa !45
  %81 = call i32 @Vec_IntSize(ptr noundef %80)
  %82 = icmp slt i32 %77, %81
  br i1 %82, label %83, label %88

83:                                               ; preds = %76
  %84 = load ptr, ptr %3, align 8, !tbaa !3
  %85 = load i32, ptr %7, align 4, !tbaa !8
  %86 = call ptr @Gia_ManCo(ptr noundef %84, i32 noundef %85)
  store ptr %86, ptr %6, align 8, !tbaa !12
  %87 = icmp ne ptr %86, null
  br label %88

88:                                               ; preds = %83, %76
  %89 = phi i1 [ false, %76 ], [ %87, %83 ]
  br i1 %89, label %90, label %100

90:                                               ; preds = %88
  %91 = load ptr, ptr %5, align 8, !tbaa !3
  %92 = load ptr, ptr %6, align 8, !tbaa !12
  %93 = call i32 @Gia_ObjFanin0Copy(ptr noundef %92)
  %94 = call i32 @Gia_ManAppendCo(ptr noundef %91, i32 noundef %93)
  %95 = load ptr, ptr %6, align 8, !tbaa !12
  %96 = getelementptr inbounds nuw %struct.Gia_Obj_t_, ptr %95, i32 0, i32 1
  store i32 %94, ptr %96, align 4, !tbaa !14
  br label %97

97:                                               ; preds = %90
  %98 = load i32, ptr %7, align 4, !tbaa !8
  %99 = add nsw i32 %98, 1
  store i32 %99, ptr %7, align 4, !tbaa !8
  br label %76, !llvm.loop !47

100:                                              ; preds = %88
  %101 = load ptr, ptr %5, align 8, !tbaa !3
  call void @Gia_ManHashStop(ptr noundef %101)
  %102 = load ptr, ptr %5, align 8, !tbaa !3
  %103 = load ptr, ptr %3, align 8, !tbaa !3
  %104 = call i32 @Gia_ManRegNum(ptr noundef %103)
  call void @Gia_ManSetRegNum(ptr noundef %102, i32 noundef %104)
  %105 = load ptr, ptr %5, align 8, !tbaa !3
  call void @llvm.lifetime.end.p0(i64 4, ptr %7) #11
  call void @llvm.lifetime.end.p0(i64 8, ptr %6) #11
  call void @llvm.lifetime.end.p0(i64 8, ptr %5) #11
  ret ptr %105
}