; Function Attrs: nounwind uwtable
define ptr @Acec_ManDerive(ptr noundef %0, ptr noundef %1) local_unnamed_addr #0 {
  tail call void @Gia_ManFillValue(ptr noundef %0) #19
  %3 = getelementptr i8, ptr %0, i64 24
  %.val47 = load i32, ptr %3, align 8, !tbaa !37
  %4 = tail call ptr @Gia_ManStart(i32 noundef %.val47) #19
  %5 = load ptr, ptr %0, align 8, !tbaa !38
  %.not.i = icmp eq ptr %5, null
  br i1 %.not.i, label %Abc_UtilStrsav.exit, label %6

6:                                                ; preds = %2
  %7 = tail call i64 @strlen(ptr noundef nonnull readonly dereferenceable(1) %5) #20
  %8 = add i64 %7, 1
  %9 = tail call noalias ptr @malloc(i64 noundef %8) #21
  %10 = tail call ptr @strcpy(ptr noundef nonnull dereferenceable(1) %9, ptr noundef nonnull readonly dereferenceable(1) %5) #19
  br label %Abc_UtilStrsav.exit

Abc_UtilStrsav.exit:                              ; preds = %2, %6
  %11 = phi ptr [ %9, %6 ], [ null, %2 ]
  store ptr %11, ptr %4, align 8, !tbaa !38
  %12 = getelementptr inbounds nuw i8, ptr %0, i64 8
  %13 = load ptr, ptr %12, align 8, !tbaa !39
  %.not.i57 = icmp eq ptr %13, null
  br i1 %.not.i57, label %Abc_UtilStrsav.exit58, label %14

14:                                               ; preds = %Abc_UtilStrsav.exit
  %15 = tail call i64 @strlen(ptr noundef nonnull readonly dereferenceable(1) %13) #20
  %16 = add i64 %15, 1
  %17 = tail call noalias ptr @malloc(i64 noundef %16) #21
  %18 = tail call ptr @strcpy(ptr noundef nonnull dereferenceable(1) %17, ptr noundef nonnull readonly dereferenceable(1) %13) #19
  br label %Abc_UtilStrsav.exit58

Abc_UtilStrsav.exit58:                            ; preds = %Abc_UtilStrsav.exit, %14
  %19 = phi ptr [ %17, %14 ], [ null, %Abc_UtilStrsav.exit ]
  %20 = getelementptr inbounds nuw i8, ptr %4, i64 8
  store ptr %19, ptr %20, align 8, !tbaa !39
  %21 = getelementptr i8, ptr %0, i64 32
  %.val48 = load ptr, ptr %21, align 8, !tbaa !11
  %22 = getelementptr inbounds nuw i8, ptr %.val48, i64 8
  store i32 0, ptr %22, align 4, !tbaa !30
  tail call void @Gia_ManHashAlloc(ptr noundef nonnull %4) #19
  %23 = getelementptr inbounds nuw i8, ptr %0, i64 64
  %24 = load ptr, ptr %23, align 8, !tbaa !40
  %25 = getelementptr i8, ptr %24, i64 4
  %.val59 = load i32, ptr %25, align 4, !tbaa !41
  %26 = icmp sgt i32 %.val59, 0
  br i1 %26, label %.lr.ph, label %.critedge

.lr.ph:                                           ; preds = %Abc_UtilStrsav.exit58, %28
  %indvars.iv = phi i64 [ %indvars.iv.next, %28 ], [ 0, %Abc_UtilStrsav.exit58 ]
  %27 = phi ptr [ %35, %28 ], [ %24, %Abc_UtilStrsav.exit58 ]
  %.val49 = load ptr, ptr %21, align 8, !tbaa !11
  %.not = icmp eq ptr %.val49, null
  br i1 %.not, label %.critedge, label %28

28:                                               ; preds = %.lr.ph
  %29 = getelementptr i8, ptr %27, i64 8
  %.val50.val = load ptr, ptr %29, align 8, !tbaa !3
  %30 = getelementptr inbounds nuw i32, ptr %.val50.val, i64 %indvars.iv
  %31 = load i32, ptr %30, align 4, !tbaa !10
  %32 = sext i32 %31 to i64
  %33 = tail call fastcc i32 @Gia_ManAppendCi(ptr noundef nonnull %4)
  %34 = getelementptr inbounds %struct.Gia_Obj_t_, ptr %.val49, i64 %32, i32 1
  store i32 %33, ptr %34, align 4, !tbaa !30
  %indvars.iv.next = add nuw nsw i64 %indvars.iv, 1
  %35 = load ptr, ptr %23, align 8, !tbaa !40
  %36 = getelementptr i8, ptr %35, i64 4
  %.val = load i32, ptr %36, align 4, !tbaa !41
  %37 = sext i32 %.val to i64
  %38 = icmp slt i64 %indvars.iv.next, %37
  br i1 %38, label %.lr.ph, label %.critedge, !llvm.loop !42

.critedge:                                        ; preds = %.lr.ph, %28, %Abc_UtilStrsav.exit58
  %39 = getelementptr inbounds nuw i8, ptr %0, i64 72
  %40 = load ptr, ptr %39, align 8, !tbaa !44
  %41 = getelementptr i8, ptr %40, i64 4
  %.val4562 = load i32, ptr %41, align 4, !tbaa !41
  %42 = icmp sgt i32 %.val4562, 0
  br i1 %42, label %.lr.ph64.preheader, label %.critedge4

.lr.ph64.preheader:                               ; preds = %.critedge
  %.val5181 = load ptr, ptr %21, align 8, !tbaa !11
  %.not4382 = icmp eq ptr %.val5181, null
  br i1 %.not4382, label %.critedge2, label %.lr.ph85

.lr.ph64:                                         ; preds = %.lr.ph85
  %.val51 = load ptr, ptr %21, align 8, !tbaa !11
  %.not43 = icmp eq ptr %.val51, null
  br i1 %.not43, label %.critedge2.loopexit, label %.lr.ph85, !llvm.loop !45

.lr.ph85:                                         ; preds = %.lr.ph64.preheader, %.lr.ph64
  %.val5184 = phi ptr [ %.val51, %.lr.ph64 ], [ %.val5181, %.lr.ph64.preheader ]
  %43 = phi ptr [ %52, %.lr.ph64 ], [ %40, %.lr.ph64.preheader ]
  %indvars.iv7183 = phi i64 [ %indvars.iv.next72, %.lr.ph64 ], [ 0, %.lr.ph64.preheader ]
  %44 = getelementptr i8, ptr %43, i64 8
  %.val52.val = load ptr, ptr %44, align 8, !tbaa !3
  %45 = getelementptr inbounds nuw i32, ptr %.val52.val, i64 %indvars.iv7183
  %46 = load i32, ptr %45, align 4, !tbaa !10
  %47 = sext i32 %46 to i64
  %48 = getelementptr inbounds %struct.Gia_Obj_t_, ptr %.val5184, i64 %47
  %.val.i = load i64, ptr %48, align 4
  %49 = trunc i64 %.val.i to i32
  %50 = and i32 %49, 536870911
  %51 = sub nsw i32 %46, %50
  tail call void @Acec_ManDerive_rec(ptr noundef nonnull %4, ptr noundef nonnull %0, i32 noundef %51, ptr noundef %1)
  %indvars.iv.next72 = add nuw nsw i64 %indvars.iv7183, 1
  %52 = load ptr, ptr %39, align 8, !tbaa !44
  %53 = getelementptr i8, ptr %52, i64 4
  %.val45 = load i32, ptr %53, align 4, !tbaa !41
  %54 = sext i32 %.val45 to i64
  %55 = icmp slt i64 %indvars.iv.next72, %54
  br i1 %55, label %.lr.ph64, label %.critedge2.loopexit, !llvm.loop !45

.critedge2.loopexit:                              ; preds = %.lr.ph64, %.lr.ph85
  %56 = icmp sgt i32 %.val45, 0
  br label %.critedge2

.critedge2:                                       ; preds = %.critedge2.loopexit, %.lr.ph64.preheader
  %.val4666.pre = phi i1 [ true, %.lr.ph64.preheader ], [ %56, %.critedge2.loopexit ]
  %57 = phi ptr [ %40, %.lr.ph64.preheader ], [ %52, %.critedge2.loopexit ]
  br i1 %.val4666.pre, label %.lr.ph68, label %.critedge4

.lr.ph68:                                         ; preds = %.critedge2, %59
  %indvars.iv74 = phi i64 [ %indvars.iv.next75, %59 ], [ 0, %.critedge2 ]
  %58 = phi ptr [ %76, %59 ], [ %57, %.critedge2 ]
  %.val53 = load ptr, ptr %21, align 8, !tbaa !11
  %.not44 = icmp eq ptr %.val53, null
  br i1 %.not44, label %.critedge4, label %59

59:                                               ; preds = %.lr.ph68
  %60 = getelementptr i8, ptr %58, i64 8
  %.val54.val = load ptr, ptr %60, align 8, !tbaa !3
  %61 = getelementptr inbounds nuw i32, ptr %.val54.val, i64 %indvars.iv74
  %62 = load i32, ptr %61, align 4, !tbaa !10
  %63 = sext i32 %62 to i64
  %64 = getelementptr inbounds %struct.Gia_Obj_t_, ptr %.val53, i64 %63
  %65 = load i64, ptr %64, align 4
  %66 = and i64 %65, 536870911
  %67 = sub nsw i64 0, %66
  %68 = getelementptr inbounds %struct.Gia_Obj_t_, ptr %64, i64 %67, i32 1
  %69 = load i32, ptr %68, align 4, !tbaa !30
  %70 = trunc i64 %65 to i32
  %71 = lshr i32 %70, 29
  %72 = and i32 %71, 1
  %73 = xor i32 %72, %69
  %74 = tail call fastcc i32 @Gia_ManAppendCo(ptr noundef nonnull %4, i32 noundef %73)
  %75 = getelementptr inbounds nuw i8, ptr %64, i64 8
  store i32 %74, ptr %75, align 4, !tbaa !30
  %indvars.iv.next75 = add nuw nsw i64 %indvars.iv74, 1
  %76 = load ptr, ptr %39, align 8, !tbaa !44
  %77 = getelementptr i8, ptr %76, i64 4
  %.val46 = load i32, ptr %77, align 4, !tbaa !41
  %78 = sext i32 %.val46 to i64
  %79 = icmp slt i64 %indvars.iv.next75, %78
  br i1 %79, label %.lr.ph68, label %.critedge4, !llvm.loop !46

.critedge4:                                       ; preds = %.lr.ph68, %59, %.critedge, %.critedge2
  tail call void @Gia_ManHashStop(ptr noundef nonnull %4) #19
  %80 = getelementptr i8, ptr %0, i64 16
  %.val56 = load i32, ptr %80, align 8, !tbaa !47
  tail call void @Gia_ManSetRegNum(ptr noundef nonnull %4, i32 noundef %.val56) #19
  ret ptr %4
}